; Function Attrs: nofree norecurse nosync nounwind memory(argmem: readwrite) uwtable
define void @ZSTDv03_findFrameSizeInfoLegacy(ptr noundef %0, i64 noundef %1, ptr noundef writeonly captures(none) %2, ptr noundef writeonly captures(none) %3) local_unnamed_addr #0 {
  %5 = icmp ult i64 %1, 7
  br i1 %5, label %6, label %7

6:                                                ; preds = %4
  store i64 -72, ptr %2, align 8, !tbaa !3
  br label %.thread51

7:                                                ; preds = %4
  %.val = load i32, ptr %0, align 1
  %.not = icmp eq i32 %.val, -47205085
  br i1 %.not, label %.lr.ph.preheader, label %8

8:                                                ; preds = %7
  store i64 -10, ptr %2, align 8, !tbaa !3
  br label %.thread51

.lr.ph.preheader:                                 ; preds = %7
  %9 = add i64 %1, -4
  %10 = getelementptr inbounds nuw i8, ptr %0, i64 4
  br label %.lr.ph

.lr.ph:                                           ; preds = %.lr.ph.preheader, %.thread86
  %.074 = phi ptr [ %36, %.thread86 ], [ %10, %.lr.ph.preheader ]
  %.03573 = phi i64 [ %37, %.thread86 ], [ %9, %.lr.ph.preheader ]
  %.03772 = phi i64 [ %38, %.thread86 ], [ 0, %.lr.ph.preheader ]
  %11 = load i8, ptr %.074, align 1, !tbaa !7
  %12 = zext i8 %11 to i32
  %13 = lshr i32 %12, 6
  switch i32 %13, label %14 [
    i32 3, label %.loopexit
    i32 2, label %.thread
  ]

._crit_edge:                                      ; preds = %.thread86
  store i64 -72, ptr %2, align 8, !tbaa !3
  br label %.thread51

14:                                               ; preds = %.lr.ph
  %15 = shl nuw nsw i32 %12, 16
  %16 = and i32 %15, 458752
  %17 = getelementptr inbounds nuw i8, ptr %.074, i64 2
  %18 = load i8, ptr %17, align 1, !tbaa !7
  %19 = zext i8 %18 to i32
  %20 = or disjoint i32 %16, %19
  %21 = getelementptr inbounds nuw i8, ptr %.074, i64 1
  %22 = load i8, ptr %21, align 1, !tbaa !7
  %23 = zext i8 %22 to i32
  %24 = shl nuw nsw i32 %23, 8
  %25 = or disjoint i32 %24, %20
  %26 = zext nneg i32 %25 to i64
  %27 = add i64 %.03573, -3
  %28 = icmp ult i64 %27, %26
  br i1 %28, label %31, label %32

.thread:                                          ; preds = %.lr.ph
  %29 = add i64 %.03573, -3
  %30 = icmp eq i64 %29, 0
  br i1 %30, label %31, label %.thread86

31:                                               ; preds = %.thread, %14
  store i64 -72, ptr %2, align 8, !tbaa !3
  br label %.thread51

32:                                               ; preds = %14
  %33 = icmp eq i32 %25, 0
  br i1 %33, label %.loopexit, label %.thread86

.thread86:                                        ; preds = %.thread, %32
  %.0.i.ph8588 = phi i64 [ %26, %32 ], [ 1, %.thread ]
  %34 = phi i64 [ %27, %32 ], [ %29, %.thread ]
  %35 = getelementptr inbounds nuw i8, ptr %.074, i64 3
  %36 = getelementptr inbounds nuw i8, ptr %35, i64 %.0.i.ph8588
  %37 = sub i64 %34, %.0.i.ph8588
  %38 = add i64 %.03772, 1
  %39 = icmp ult i64 %37, 3
  br i1 %39, label %._crit_edge, label %.lr.ph

.loopexit:                                        ; preds = %32, %.lr.ph
  %.1.ph = getelementptr inbounds nuw i8, ptr %.074, i64 3
  %40 = ptrtoint ptr %.1.ph to i64
  %41 = ptrtoint ptr %0 to i64
  %42 = sub i64 %40, %41
  store i64 %42, ptr %2, align 8, !tbaa !3
  %43 = shl i64 %.03772, 17
  br label %.thread51

.thread51:                                        ; preds = %31, %._crit_edge, %.loopexit, %8, %6
  %.sink = phi i64 [ -2, %31 ], [ -2, %._crit_edge ], [ %43, %.loopexit ], [ -2, %8 ], [ -2, %6 ]
  store i64 %.sink, ptr %3, align 8, !tbaa !8
  ret void
}